; Function Attrs: mustprogress uwtable
define dso_local noundef i32 @_ZN26cmCTestBuildAndTestHandler14ProcessHandlerEv(ptr noundef nonnull align 8 dereferenceable(776) %0) unnamed_addr #3 align 2 personality ptr @__gxx_personality_v0 {
  %2 = alloca %"class.std::__cxx11::basic_string", align 8
  %3 = getelementptr inbounds i8, ptr %0, i64 288
  tail call void @_ZNSt7__cxx1112basic_stringIcSt11char_traitsIcESaIcEE5clearEv(ptr noundef nonnull align 8 dereferenceable(32) %3) #16
  call void @_ZNSt7__cxx1112basic_stringIcSt11char_traitsIcESaIcEEC1Ev(ptr noundef nonnull align 8 dereferenceable(32) %2) #16
  store i8 0, ptr @_ZN13cmSystemTools20s_FatalErrorOccurredE, align 1
  store i8 0, ptr @_ZN13cmSystemTools15s_ErrorOccurredE, align 1
  %4 = invoke noundef i32 @_ZN26cmCTestBuildAndTestHandler15RunCMakeAndTestEPNSt7__cxx1112basic_stringIcSt11char_traitsIcESaIcEEE(ptr noundef nonnull align 8 dereferenceable(776) %0, ptr noundef nonnull %3)
          to label %5 unwind label %6

5:                                                ; preds = %1
  store i8 0, ptr @_ZN13cmSystemTools20s_FatalErrorOccurredE, align 1
  store i8 0, ptr @_ZN13cmSystemTools15s_ErrorOccurredE, align 1
  call void @_ZNSt7__cxx1112basic_stringIcSt11char_traitsIcESaIcEED1Ev(ptr noundef nonnull align 8 dereferenceable(32) %2) #16
  ret i32 %4

6:                                                ; preds = %1
  %7 = landingpad { ptr, i32 }
          cleanup
  call void @_ZNSt7__cxx1112basic_stringIcSt11char_traitsIcESaIcEED1Ev(ptr noundef nonnull align 8 dereferenceable(32) %2) #16
  resume { ptr, i32 } %7
}